target datalayout = "e-m:e-p270:32:32-p271:32:32-p272:64:64-i64:64-i128:128-f80:128-n8:16:32:64-S128"
target triple = "x86_64-pc-linux-gnu"

%struct.Supp_Man_t_ = type { i32, i32, ptr, i32, ptr, ptr }
%struct.Vec_Ptr_t_ = type { i32, i32, ptr }

; Function Attrs: nounwind uwtable
define internal void @Vec_PtrFree(ptr noundef %0) #0 {
  %2 = alloca ptr, align 8
  store ptr %0, ptr %2, align 8
  %3 = load ptr, ptr %2, align 8
  %4 = getelementptr inbounds %struct.Vec_Ptr_t_, ptr %3, i32 0, i32 2
  %5 = load ptr, ptr %4, align 8
  %6 = icmp ne ptr %5, null
  br i1 %6, label %7, label %13

7:                                                ; preds = %1
  %8 = load ptr, ptr %2, align 8
  %9 = getelementptr inbounds %struct.Vec_Ptr_t_, ptr %8, i32 0, i32 2
  %10 = load ptr, ptr %9, align 8
  call void @free(ptr noundef %10) #10
  %11 = load ptr, ptr %2, align 8
  %12 = getelementptr inbounds %struct.Vec_Ptr_t_, ptr %11, i32 0, i32 2
  store ptr null, ptr %12, align 8
  br label %14

13:                                               ; preds = %1
  br label %14

14:                                               ; preds = %13, %7
  %15 = load ptr, ptr %2, align 8
  %16 = icmp ne ptr %15, null
  br i1 %16, label %17, label %19

17:                                               ; preds = %14
  %18 = load ptr, ptr %2, align 8
  call void @free(ptr noundef %18) #10
  store ptr null, ptr %2, align 8
  br label %20

19:                                               ; preds = %14
  br label %20

20:                                               ; preds = %19, %17
  ret void
}

; Function Attrs: nounwind uwtable
define internal ptr @Vec_PtrEntry(ptr noundef %0, i32 noundef %1) #0 {
  %3 = alloca ptr, align 8
  %4 = alloca i32, align 4
  store ptr %0, ptr %3, align 8
  store i32 %1, ptr %4, align 4
  %5 = load ptr, ptr %3, align 8
  %6 = getelementptr inbounds %struct.Vec_Ptr_t_, ptr %5, i32 0, i32 2
  %7 = load ptr, ptr %6, align 8
  %8 = load i32, ptr %4, align 4
  %9 = sext i32 %8 to i64
  %10 = getelementptr inbounds ptr, ptr %7, i64 %9
  %11 = load ptr, ptr %10, align 8
  ret ptr %11
}

; Function Attrs: nounwind uwtable
define internal i32 @Vec_PtrSize(ptr noundef %0) #0 {
  %2 = alloca ptr, align 8
  store ptr %0, ptr %2, align 8
  %3 = load ptr, ptr %2, align 8
  %4 = getelementptr inbounds %struct.Vec_Ptr_t_, ptr %3, i32 0, i32 1
  %5 = load i32, ptr %4, align 4
  ret i32 %5
}

; Function Attrs: nounwind uwtable
define void @Supp_ManStop(ptr noundef %0) #0 {
  %2 = alloca ptr, align 8
  %3 = alloca ptr, align 8
  %4 = alloca i32, align 4
  store ptr %0, ptr %2, align 8
  store i32 0, ptr %4, align 4
  br label %5

5:                                                ; preds = %27, %1
  %6 = load i32, ptr %4, align 4
  %7 = load ptr, ptr %2, align 8
  %8 = getelementptr inbounds %struct.Supp_Man_t_, ptr %7, i32 0, i32 4
  %9 = load ptr, ptr %8, align 8
  %10 = call i32 @Vec_PtrSize(ptr noundef %9)
  %11 = icmp slt i32 %6, %10
  br i1 %11, label %12, label %18

12:                                               ; preds = %5
  %13 = load ptr, ptr %2, align 8
  %14 = getelementptr inbounds %struct.Supp_Man_t_, ptr %13, i32 0, i32 4
  %15 = load ptr, ptr %14, align 8
  %16 = load i32, ptr %4, align 4
  %17 = call ptr @Vec_PtrEntry(ptr noundef %15, i32 noundef %16)
  store ptr %17, ptr %3, align 8
  br label %18

18:                                               ; preds = %12, %5
  %19 = phi i1 [ false, %5 ], [ true, %12 ]
  br i1 %19, label %20, label %30

20:                                               ; preds = %18
  %21 = load ptr, ptr %3, align 8
  %22 = icmp ne ptr %21, null
  br i1 %22, label %23, label %25

23:                                               ; preds = %20
  %24 = load ptr, ptr %3, align 8
  call void @free(ptr noundef %24) #10
  store ptr null, ptr %3, align 8
  br label %26

25:                                               ; preds = %20
  br label %26

26:                                               ; preds = %25, %23
  br label %27

27:                                               ; preds = %26
  %28 = load i32, ptr %4, align 4
  %29 = add nsw i32 %28, 1
  store i32 %29, ptr %4, align 4
  br label %5, !llvm.loop !4

30:                                               ; preds = %18
  %31 = load ptr, ptr %2, align 8
  %32 = getelementptr inbounds %struct.Supp_Man_t_, ptr %31, i32 0, i32 4
  %33 = load ptr, ptr %32, align 8
  call void @Vec_PtrFree(ptr noundef %33)
  %34 = load ptr, ptr %2, align 8
  %35 = getelementptr inbounds %struct.Supp_Man_t_, ptr %34, i32 0, i32 5
  %36 = load ptr, ptr %35, align 8
  call void @Vec_PtrFree(ptr noundef %36)
  %37 = load ptr, ptr %2, align 8
  %38 = icmp ne ptr %37, null
  br i1 %38, label %39, label %41

39:                                               ; preds = %30
  %40 = load ptr, ptr %2, align 8
  call void @free(ptr noundef %40) #10
  store ptr null, ptr %2, align 8
  br label %42

41:                                               ; preds = %30
  br label %42

42:                                               ; preds = %41, %39
  ret void
}